target datalayout = "e-m:e-p270:32:32-p271:32:32-p272:64:64-i64:64-i128:128-f80:128-n8:16:32:64-S128"
target triple = "x86_64-pc-linux-gnu"

@H5PL_paths_g = internal global ptr null, align 8
@.str = private unnamed_addr constant [102 x i8] c"generated/home/dtcxzyw/WorkSpace/Projects/compilers/llvm-opt-benchmark/bench/hdf5/hdf5/src/H5PLpath.c\00", align 1
@H5E_PLUGIN_g = external global i64, align 8
@H5E_CANTALLOC_g = external global i64, align 8
@H5E_CANTINSERT_g = external global i64, align 8
@__func__.H5PL__replace_path = private unnamed_addr constant [19 x i8] c"H5PL__replace_path\00", align 1
@.str.9 = private unnamed_addr constant [30 x i8] c"unable to replace search path\00", align 1
@.str.17 = private unnamed_addr constant [33 x i8] c"can't make internal copy of path\00", align 1
@__func__.H5PL__replace_at = private unnamed_addr constant [17 x i8] c"H5PL__replace_at\00", align 1
@H5E_CANTFREE_g = external global i64, align 8
@.str.20 = private unnamed_addr constant [44 x i8] c"path entry at index %u in the table is NULL\00", align 1

; Function Attrs: nounwind uwtable
define internal i32 @H5PL__replace_at(ptr noundef %0, i32 noundef %1) #0 {
  %3 = alloca ptr, align 8
  %4 = alloca i32, align 4
  %5 = alloca ptr, align 8
  %6 = alloca i32, align 4
  %7 = alloca i8, align 1
  store ptr %0, ptr %3, align 8
  store i32 %1, ptr %4, align 4
  store ptr null, ptr %5, align 8
  store i32 0, ptr %6, align 4
  store i8 0, ptr %7, align 1
  %8 = load ptr, ptr @H5PL_paths_g, align 8
  %9 = load i32, ptr %4, align 4
  %10 = zext i32 %9 to i64
  %11 = getelementptr inbounds ptr, ptr %8, i64 %10
  %12 = load ptr, ptr %11, align 8
  %13 = icmp ne ptr %12, null
  br i1 %13, label %30, label %14

14:                                               ; preds = %2
  br label %15

15:                                               ; preds = %14
  br label %16

16:                                               ; preds = %15
  br label %17

17:                                               ; preds = %16
  %18 = load i64, ptr @H5E_PLUGIN_g, align 8
  %19 = load i64, ptr @H5E_CANTFREE_g, align 8
  %20 = load i32, ptr %4, align 4
  %21 = call i32 (ptr, ptr, i32, i64, i64, ptr, ...) @H5E_printf_stack(ptr noundef @.str, ptr noundef @__func__.H5PL__replace_at, i32 noundef 197, i64 noundef %18, i64 noundef %19, ptr noundef @.str.20, i32 noundef %20)
  br label %22

22:                                               ; preds = %17
  store i8 1, ptr %7, align 1
  %23 = load i8, ptr %7, align 1
  %24 = trunc i8 %23 to i1
  %25 = zext i1 %24 to i8
  store i8 %25, ptr %7, align 1
  br label %26

26:                                               ; preds = %22
  br label %27

27:                                               ; preds = %26
  store i32 -1, ptr %6, align 4
  br label %65

28:                                               ; No predecessors!
  br label %29

29:                                               ; preds = %28
  br label %30

30:                                               ; preds = %29, %2
  %31 = load ptr, ptr %3, align 8
  %32 = call noalias ptr @H5MM_strdup(ptr noundef %31)
  store ptr %32, ptr %5, align 8
  %33 = icmp eq ptr null, %32
  br i1 %33, label %34, label %49

34:                                               ; preds = %30
  br label %35

35:                                               ; preds = %34
  br label %36

36:                                               ; preds = %35
  br label %37

37:                                               ; preds = %36
  %38 = load i64, ptr @H5E_PLUGIN_g, align 8
  %39 = load i64, ptr @H5E_CANTALLOC_g, align 8
  %40 = call i32 (ptr, ptr, i32, i64, i64, ptr, ...) @H5E_printf_stack(ptr noundef @.str, ptr noundef @__func__.H5PL__replace_at, i32 noundef 201, i64 noundef %38, i64 noundef %39, ptr noundef @.str.17)
  br label %41

41:                                               ; preds = %37
  store i8 1, ptr %7, align 1
  %42 = load i8, ptr %7, align 1
  %43 = trunc i8 %42 to i1
  %44 = zext i1 %43 to i8
  store i8 %44, ptr %7, align 1
  br label %45

45:                                               ; preds = %41
  br label %46

46:                                               ; preds = %45
  store i32 -1, ptr %6, align 4
  br label %65

47:                                               ; No predecessors!
  br label %48

48:                                               ; preds = %47
  br label %49

49:                                               ; preds = %48, %30
  %50 = load ptr, ptr @H5PL_paths_g, align 8
  %51 = load i32, ptr %4, align 4
  %52 = zext i32 %51 to i64
  %53 = getelementptr inbounds ptr, ptr %50, i64 %52
  %54 = load ptr, ptr %53, align 8
  %55 = call ptr @H5MM_xfree(ptr noundef %54)
  %56 = load ptr, ptr @H5PL_paths_g, align 8
  %57 = load i32, ptr %4, align 4
  %58 = zext i32 %57 to i64
  %59 = getelementptr inbounds ptr, ptr %56, i64 %58
  store ptr %55, ptr %59, align 8
  %60 = load ptr, ptr %5, align 8
  %61 = load ptr, ptr @H5PL_paths_g, align 8
  %62 = load i32, ptr %4, align 4
  %63 = zext i32 %62 to i64
  %64 = getelementptr inbounds ptr, ptr %61, i64 %63
  store ptr %60, ptr %64, align 8
  br label %65

65:                                               ; preds = %49, %46, %27
  %66 = load i32, ptr %6, align 4
  ret i32 %66
}

; Function Attrs: nounwind uwtable
define i32 @H5PL__replace_path(ptr noundef %0, i32 noundef %1) #0 {
  %3 = alloca ptr, align 8
  %4 = alloca i32, align 4
  %5 = alloca i32, align 4
  %6 = alloca i8, align 1
  store ptr %0, ptr %3, align 8
  store i32 %1, ptr %4, align 4
  store i32 0, ptr %5, align 4
  store i8 0, ptr %6, align 1
  %7 = load ptr, ptr %3, align 8
  %8 = load i32, ptr %4, align 4
  %9 = call i32 @H5PL__replace_at(ptr noundef %7, i32 noundef %8)
  %10 = icmp slt i32 %9, 0
  br i1 %10, label %11, label %26

11:                                               ; preds = %2
  br label %12

12:                                               ; preds = %11
  br label %13

13:                                               ; preds = %12
  br label %14

14:                                               ; preds = %13
  %15 = load i64, ptr @H5E_PLUGIN_g, align 8
  %16 = load i64, ptr @H5E_CANTINSERT_g, align 8
  %17 = call i32 (ptr, ptr, i32, i64, i64, ptr, ...) @H5E_printf_stack(ptr noundef @.str, ptr noundef @__func__.H5PL__replace_path, i32 noundef 451, i64 noundef %15, i64 noundef %16, ptr noundef @.str.9)
  br label %18

18:                                               ; preds = %14
  store i8 1, ptr %6, align 1
  %19 = load i8, ptr %6, align 1
  %20 = trunc i8 %19 to i1
  %21 = zext i1 %20 to i8
  store i8 %21, ptr %6, align 1
  br label %22

22:                                               ; preds = %18
  br label %23

23:                                               ; preds = %22
  store i32 -1, ptr %5, align 4
  br label %27

24:                                               ; No predecessors!
  br label %25

25:                                               ; preds = %24
  br label %26

26:                                               ; preds = %25, %2
  br label %27

27:                                               ; preds = %26, %23
  %28 = load i32, ptr %5, align 4
  ret i32 %28
}