; Function Attrs: nounwind uwtable
define range(i32 -1, 1) i32 @H5PL__replace_path(ptr noundef %0, i32 noundef %1) local_unnamed_addr #0 {
  %3 = load ptr, ptr @H5PL_paths_g, align 8
  %4 = zext i32 %1 to i64
  %5 = getelementptr inbounds ptr, ptr %3, i64 %4
  %6 = load ptr, ptr %5, align 8
  %.not.i = icmp eq ptr %6, null
  br i1 %.not.i, label %7, label %11

7:                                                ; preds = %2
  %8 = load i64, ptr @H5E_PLUGIN_g, align 8
  %9 = load i64, ptr @H5E_CANTFREE_g, align 8
  %10 = tail call i32 (ptr, ptr, i32, i64, i64, ptr, ...) @H5E_printf_stack(ptr noundef nonnull @.str, ptr noundef nonnull @__func__.H5PL__replace_at, i32 noundef 197, i64 noundef %8, i64 noundef %9, ptr noundef nonnull @.str.20, i32 noundef %1) #13
  br label %24

11:                                               ; preds = %2
  %12 = tail call noalias ptr @H5MM_strdup(ptr noundef %0) #13
  %13 = icmp eq ptr %12, null
  br i1 %13, label %14, label %H5PL__replace_at.exit

14:                                               ; preds = %11
  %15 = load i64, ptr @H5E_PLUGIN_g, align 8
  %16 = load i64, ptr @H5E_CANTALLOC_g, align 8
  %17 = tail call i32 (ptr, ptr, i32, i64, i64, ptr, ...) @H5E_printf_stack(ptr noundef nonnull @.str, ptr noundef nonnull @__func__.H5PL__replace_at, i32 noundef 201, i64 noundef %15, i64 noundef %16, ptr noundef nonnull @.str.17) #13
  br label %24

H5PL__replace_at.exit:                            ; preds = %11
  %18 = load ptr, ptr @H5PL_paths_g, align 8
  %19 = getelementptr inbounds ptr, ptr %18, i64 %4
  %20 = load ptr, ptr %19, align 8
  %21 = tail call ptr @H5MM_xfree(ptr noundef %20) #13
  %22 = load ptr, ptr @H5PL_paths_g, align 8
  %23 = getelementptr inbounds ptr, ptr %22, i64 %4
  store ptr %12, ptr %23, align 8
  br label %28

24:                                               ; preds = %14, %7
  %25 = load i64, ptr @H5E_PLUGIN_g, align 8
  %26 = load i64, ptr @H5E_CANTINSERT_g, align 8
  %27 = tail call i32 (ptr, ptr, i32, i64, i64, ptr, ...) @H5E_printf_stack(ptr noundef nonnull @.str, ptr noundef nonnull @__func__.H5PL__replace_path, i32 noundef 451, i64 noundef %25, i64 noundef %26, ptr noundef nonnull @.str.9) #13
  br label %28

28:                                               ; preds = %H5PL__replace_at.exit, %24
  %.0 = phi i32 [ -1, %24 ], [ 0, %H5PL__replace_at.exit ]
  ret i32 %.0
}